target datalayout = "e-m:e-p270:32:32-p271:32:32-p272:64:64-i64:64-i128:128-f80:128-n8:16:32:64-S128"
target triple = "x86_64-pc-linux-gnu"

%struct._ikev2_uat_data = type { %struct._ikev2_uat_data_key, i32, i32, ptr, i32, ptr, i32, ptr, i32, ptr, i32, ptr, ptr }
%struct._ikev2_uat_data_key = type { ptr, i32, ptr, i32 }

; Function Attrs: null_pointer_is_valid sspstrong uwtable
define internal void @ikev2_uat_data_free_cb(ptr noundef %0) #0 {
  %2 = alloca ptr, align 8
  %3 = alloca ptr, align 8
  store ptr %0, ptr %2, align 8
  call void @llvm.lifetime.start.p0(i64 8, ptr %3) #16
  %4 = load ptr, ptr %2, align 8
  store ptr %4, ptr %3, align 8
  %5 = load ptr, ptr %3, align 8
  %6 = getelementptr inbounds nuw %struct._ikev2_uat_data, ptr %5, i32 0, i32 0
  %7 = getelementptr inbounds nuw %struct._ikev2_uat_data_key, ptr %6, i32 0, i32 0
  %8 = load ptr, ptr %7, align 8
  call void @g_free(ptr noundef %8)
  %9 = load ptr, ptr %3, align 8
  %10 = getelementptr inbounds nuw %struct._ikev2_uat_data, ptr %9, i32 0, i32 0
  %11 = getelementptr inbounds nuw %struct._ikev2_uat_data_key, ptr %10, i32 0, i32 2
  %12 = load ptr, ptr %11, align 8
  call void @g_free(ptr noundef %12)
  %13 = load ptr, ptr %3, align 8
  %14 = getelementptr inbounds nuw %struct._ikev2_uat_data, ptr %13, i32 0, i32 3
  %15 = load ptr, ptr %14, align 8
  call void @g_free(ptr noundef %15)
  %16 = load ptr, ptr %3, align 8
  %17 = getelementptr inbounds nuw %struct._ikev2_uat_data, ptr %16, i32 0, i32 5
  %18 = load ptr, ptr %17, align 8
  call void @g_free(ptr noundef %18)
  %19 = load ptr, ptr %3, align 8
  %20 = getelementptr inbounds nuw %struct._ikev2_uat_data, ptr %19, i32 0, i32 7
  %21 = load ptr, ptr %20, align 8
  call void @g_free(ptr noundef %21)
  %22 = load ptr, ptr %3, align 8
  %23 = getelementptr inbounds nuw %struct._ikev2_uat_data, ptr %22, i32 0, i32 9
  %24 = load ptr, ptr %23, align 8
  call void @g_free(ptr noundef %24)
  call void @llvm.lifetime.end.p0(i64 8, ptr %3) #16
  ret void
}